; ModuleID = '22/712.c'
source_filename = "22/712.c"
target datalayout = "e-m:e-p270:32:32-p271:32:32-p272:64:64-i64:64-f80:128-n8:16:32:64-S128"
target triple = "x86_64-pc-linux-gnu"

@.str = private unnamed_addr constant [3 x i8] c"%d\00", align 1
@.str.1 = private unnamed_addr constant [3 x i8] c"No\00", align 1

; Function Attrs: noinline nounwind uwtable
define dso_local void @main() #0 {
  %1 = alloca i32, align 4
  %2 = alloca i32, align 4
  %3 = alloca i32, align 4
  store i32 -1, i32* %3, align 4
  %4 = call i32 (i8*, ...) @__isoc99_scanf(i8* getelementptr inbounds ([3 x i8], [3 x i8]* @.str, i64 0, i64 0), i32* %2)
  br label %5

5:                                                ; preds = %27, %0
  %6 = call i32 @getchar()
  %7 = icmp ne i32 %6, 10
  br i1 %7, label %8, label %28

8:                                                ; preds = %5
  %9 = call i32 (i8*, ...) @__isoc99_scanf(i8* getelementptr inbounds ([3 x i8], [3 x i8]* @.str, i64 0, i64 0), i32* %1)
  %10 = load i32, i32* %1, align 4
  %11 = load i32, i32* %2, align 4
  %12 = icmp sgt i32 %10, %11
  br i1 %12, label %13, label %16

13:                                               ; preds = %8
  %14 = load i32, i32* %2, align 4
  store i32 %14, i32* %3, align 4
  %15 = load i32, i32* %1, align 4
  store i32 %15, i32* %2, align 4
  br label %27

16:                                               ; preds = %8
  %17 = load i32, i32* %1, align 4
  %18 = load i32, i32* %2, align 4
  %19 = icmp slt i32 %17, %18
  br i1 %19, label %20, label %26

20:                                               ; preds = %16
  %21 = load i32, i32* %1, align 4
  %22 = load i32, i32* %3, align 4
  %23 = icmp sgt i32 %21, %22
  br i1 %23, label %24, label %26

24:                                               ; preds = %20
  %25 = load i32, i32* %1, align 4
  store i32 %25, i32* %3, align 4
  br label %26

26:                                               ; preds = %24, %20, %16
  br label %27

27:                                               ; preds = %26, %13
  br label %5

28:                                               ; preds = %5
  %29 = load i32, i32* %3, align 4
  %30 = icmp ne i32 %29, -1
  br i1 %30, label %31, label %38

31:                                               ; preds = %28
  %32 = load i32, i32* %3, align 4
  %33 = load i32, i32* %2, align 4
  %34 = icmp ne i32 %32, %33
  br i1 %34, label %35, label %38

35:                                               ; preds = %31
  %36 = load i32, i32* %3, align 4
  %37 = call i32 (i8*, ...) @printf(i8* getelementptr inbounds ([3 x i8], [3 x i8]* @.str, i64 0, i64 0), i32 %36)
  br label %40

38:                                               ; preds = %31, %28
  %39 = call i32 (i8*, ...) @printf(i8* getelementptr inbounds ([3 x i8], [3 x i8]* @.str.1, i64 0, i64 0))
  br label %40

40:                                               ; preds = %38, %35
  ret void
}

declare dso_local i32 @__isoc99_scanf(i8*, ...) #1

declare dso_local i32 @getchar() #1

declare dso_local i32 @printf(i8*, ...) #1


!llvm.module.flags = !{!0}
!llvm.ident = !{!1}

!0 = !{i32 1, !"wchar_size", i32 4}
!1 = !{!"clang version 10.0.0-4ubuntu1 "}
